target datalayout = "e-m:e-p270:32:32-p271:32:32-p272:64:64-i64:64-i128:128-f80:128-n8:16:32:64-S128"
target triple = "x86_64-pc-linux-gnu"

%"class.icu_77::UnicodeString" = type { %"class.icu_77::Replaceable", %"union.icu_77::UnicodeString::StackBufferOrFields" }
%"class.icu_77::Replaceable" = type { %"class.icu_77::UObject" }
%"class.icu_77::UObject" = type { ptr }
%"union.icu_77::UnicodeString::StackBufferOrFields" = type { %struct.anon.0, [32 x i8] }
%struct.anon.0 = type { i16, i32, i32, ptr }

; Function Attrs: inlinehint mustprogress nounwind uwtable
define linkonce_odr noundef i32 @_ZNK6icu_7713UnicodeString14getShortLengthEv(ptr noundef nonnull align 8 dereferenceable(64) %0) #2 comdat align 2 {
  %2 = alloca ptr, align 8
  store ptr %0, ptr %2, align 8, !tbaa !31
  %3 = load ptr, ptr %2, align 8
  %4 = getelementptr inbounds nuw %"class.icu_77::UnicodeString", ptr %3, i32 0, i32 1
  %5 = getelementptr inbounds nuw %struct.anon.0, ptr %4, i32 0, i32 0
  %6 = load i16, ptr %5, align 8, !tbaa !33
  %7 = sext i16 %6 to i32
  %8 = ashr i32 %7, 5
  ret i32 %8
}

; Function Attrs: inlinehint mustprogress nounwind uwtable
define linkonce_odr noundef signext i8 @_ZNK6icu_7713UnicodeString14hasShortLengthEv(ptr noundef nonnull align 8 dereferenceable(64) %0) #2 comdat align 2 {
  %2 = alloca ptr, align 8
  store ptr %0, ptr %2, align 8, !tbaa !31
  %3 = load ptr, ptr %2, align 8
  %4 = getelementptr inbounds nuw %"class.icu_77::UnicodeString", ptr %3, i32 0, i32 1
  %5 = getelementptr inbounds nuw %struct.anon.0, ptr %4, i32 0, i32 0
  %6 = load i16, ptr %5, align 8, !tbaa !33
  %7 = sext i16 %6 to i32
  %8 = icmp sge i32 %7, 0
  %9 = zext i1 %8 to i8
  ret i8 %9
}

; Function Attrs: inlinehint mustprogress uwtable
define linkonce_odr noundef i32 @_ZNK6icu_7713UnicodeString6lengthEv(ptr noundef nonnull align 8 dereferenceable(64) %0) #3 comdat align 2 {
  %2 = alloca ptr, align 8
  store ptr %0, ptr %2, align 8, !tbaa !31
  %3 = load ptr, ptr %2, align 8
  %4 = call noundef signext i8 @_ZNK6icu_7713UnicodeString14hasShortLengthEv(ptr noundef nonnull align 8 dereferenceable(64) %3)
  %5 = icmp ne i8 %4, 0
  br i1 %5, label %6, label %8

6:                                                ; preds = %1
  %7 = call noundef i32 @_ZNK6icu_7713UnicodeString14getShortLengthEv(ptr noundef nonnull align 8 dereferenceable(64) %3)
  br label %12

8:                                                ; preds = %1
  %9 = getelementptr inbounds nuw %"class.icu_77::UnicodeString", ptr %3, i32 0, i32 1
  %10 = getelementptr inbounds nuw %struct.anon.0, ptr %9, i32 0, i32 1
  %11 = load i32, ptr %10, align 4, !tbaa !33
  br label %12

12:                                               ; preds = %8, %6
  %13 = phi i32 [ %7, %6 ], [ %11, %8 ]
  ret i32 %13
}

; Function Attrs: inlinehint mustprogress nounwind uwtable
define linkonce_odr noundef signext i8 @_ZNK6icu_7713UnicodeString7isBogusEv(ptr noundef nonnull align 8 dereferenceable(64) %0) #2 comdat align 2 {
  %2 = alloca ptr, align 8
  store ptr %0, ptr %2, align 8, !tbaa !31
  %3 = load ptr, ptr %2, align 8
  %4 = getelementptr inbounds nuw %"class.icu_77::UnicodeString", ptr %3, i32 0, i32 1
  %5 = getelementptr inbounds nuw %struct.anon.0, ptr %4, i32 0, i32 0
  %6 = load i16, ptr %5, align 8, !tbaa !33
  %7 = sext i16 %6 to i32
  %8 = and i32 %7, 1
  %9 = trunc i32 %8 to i8
  ret i8 %9
}

; Function Attrs: inlinehint mustprogress uwtable
define linkonce_odr noundef nonnull align 8 dereferenceable(64) ptr @_ZN6icu_7713UnicodeString7replaceEiiRKS0_(ptr noundef nonnull align 8 dereferenceable(64) %0, i32 noundef %1, i32 noundef %2, ptr noundef nonnull align 8 dereferenceable(64) %3) #3 comdat align 2 {
  %5 = alloca ptr, align 8
  %6 = alloca i32, align 4
  %7 = alloca i32, align 4
  %8 = alloca ptr, align 8
  store ptr %0, ptr %5, align 8, !tbaa !31
  store i32 %1, ptr %6, align 4, !tbaa !14
  store i32 %2, ptr %7, align 4, !tbaa !14
  store ptr %3, ptr %8, align 8, !tbaa !31
  %9 = load ptr, ptr %5, align 8
  %10 = load i32, ptr %6, align 4, !tbaa !14
  %11 = load i32, ptr %7, align 4, !tbaa !14
  %12 = load ptr, ptr %8, align 8, !tbaa !31
  %13 = load ptr, ptr %8, align 8, !tbaa !31
  %14 = call noundef i32 @_ZNK6icu_7713UnicodeString6lengthEv(ptr noundef nonnull align 8 dereferenceable(64) %13)
  %15 = call noundef nonnull align 8 dereferenceable(64) ptr @_ZN6icu_7713UnicodeString9doReplaceEiiRKS0_ii(ptr noundef nonnull align 8 dereferenceable(64) %9, i32 noundef %10, i32 noundef %11, ptr noundef nonnull align 8 dereferenceable(64) %12, i32 noundef 0, i32 noundef %14)
  ret ptr %15
}

; Function Attrs: inlinehint mustprogress nounwind uwtable
define internal noundef signext i8 @_ZL9U_FAILURE10UErrorCode(i32 noundef %0) #2 {
  %2 = alloca i32, align 4
  store i32 %0, ptr %2, align 4, !tbaa !15
  %3 = load i32, ptr %2, align 4, !tbaa !15
  %4 = icmp sgt i32 %3, 0
  %5 = zext i1 %4 to i8
  ret i8 %5
}

; Function Attrs: mustprogress uwtable
define internal noundef i32 @_ZN6icu_77L12replaceLabelERNS_13UnicodeStringEiiRKS0_iR10UErrorCode(ptr noundef nonnull align 8 dereferenceable(64) %0, i32 noundef %1, i32 noundef %2, ptr noundef nonnull align 8 dereferenceable(64) %3, i32 noundef %4, ptr noundef nonnull align 4 dereferenceable(4) %5) #1 {
  %7 = alloca i32, align 4
  %8 = alloca ptr, align 8
  %9 = alloca i32, align 4
  %10 = alloca i32, align 4
  %11 = alloca ptr, align 8
  %12 = alloca i32, align 4
  %13 = alloca ptr, align 8
  store ptr %0, ptr %8, align 8, !tbaa !31
  store i32 %1, ptr %9, align 4, !tbaa !14
  store i32 %2, ptr %10, align 4, !tbaa !14
  store ptr %3, ptr %11, align 8, !tbaa !31
  store i32 %4, ptr %12, align 4, !tbaa !14
  store ptr %5, ptr %13, align 8, !tbaa !22
  %14 = load ptr, ptr %13, align 8, !tbaa !22
  %15 = load i32, ptr %14, align 4, !tbaa !15
  %16 = call noundef signext i8 @_ZL9U_FAILURE10UErrorCode(i32 noundef %15)
  %17 = icmp ne i8 %16, 0
  br i1 %17, label %18, label %19

18:                                               ; preds = %6
  store i32 0, ptr %7, align 4
  br label %37

19:                                               ; preds = %6
  %20 = load ptr, ptr %11, align 8, !tbaa !31
  %21 = load ptr, ptr %8, align 8, !tbaa !31
  %22 = icmp ne ptr %20, %21
  br i1 %22, label %23, label %35

23:                                               ; preds = %19
  %24 = load ptr, ptr %8, align 8, !tbaa !31
  %25 = load i32, ptr %9, align 4, !tbaa !14
  %26 = load i32, ptr %10, align 4, !tbaa !14
  %27 = load ptr, ptr %11, align 8, !tbaa !31
  %28 = call noundef nonnull align 8 dereferenceable(64) ptr @_ZN6icu_7713UnicodeString7replaceEiiRKS0_(ptr noundef nonnull align 8 dereferenceable(64) %24, i32 noundef %25, i32 noundef %26, ptr noundef nonnull align 8 dereferenceable(64) %27)
  %29 = load ptr, ptr %8, align 8, !tbaa !31
  %30 = call noundef signext i8 @_ZNK6icu_7713UnicodeString7isBogusEv(ptr noundef nonnull align 8 dereferenceable(64) %29)
  %31 = icmp ne i8 %30, 0
  br i1 %31, label %32, label %34

32:                                               ; preds = %23
  %33 = load ptr, ptr %13, align 8, !tbaa !22
  store i32 7, ptr %33, align 4, !tbaa !15
  store i32 0, ptr %7, align 4
  br label %37

34:                                               ; preds = %23
  br label %35

35:                                               ; preds = %34, %19
  %36 = load i32, ptr %12, align 4, !tbaa !14
  store i32 %36, ptr %7, align 4
  br label %37

37:                                               ; preds = %35, %32, %18
  %38 = load i32, ptr %7, align 4
  ret i32 %38
}