; Function Attrs: mustprogress uwtable
define internal fastcc noundef i32 @_ZN6icu_77L12replaceLabelERNS_13UnicodeStringEiiRKS0_iR10UErrorCode(ptr noundef nonnull align 8 dereferenceable(64) %0, i32 noundef %1, i32 noundef %2, ptr noundef nonnull align 8 dereferenceable(64) %3, i32 noundef %4, ptr noundef nonnull align 4 captures(none) dereferenceable(4) %5) unnamed_addr #1 {
  %7 = load i32, ptr %5, align 4, !tbaa !13
  %8 = icmp slt i32 %7, 1
  br i1 %8, label %9, label %24

9:                                                ; preds = %6
  %.not12 = icmp eq ptr %3, %0
  br i1 %.not12, label %24, label %10

10:                                               ; preds = %9
  %11 = getelementptr inbounds nuw i8, ptr %3, i64 8
  %12 = load i16, ptr %11, align 8, !tbaa !17
  %13 = icmp slt i16 %12, 0
  %14 = ashr i16 %12, 5
  %15 = sext i16 %14 to i32
  %16 = getelementptr inbounds nuw i8, ptr %3, i64 12
  %17 = load i32, ptr %16, align 4
  %18 = select i1 %13, i32 %17, i32 %15
  %19 = tail call noundef nonnull align 8 dereferenceable(64) ptr @_ZN6icu_7713UnicodeString9doReplaceEiiRKS0_ii(ptr noundef nonnull align 8 dereferenceable(64) %0, i32 noundef %1, i32 noundef %2, ptr noundef nonnull align 8 dereferenceable(64) %3, i32 noundef 0, i32 noundef %18)
  %20 = getelementptr inbounds nuw i8, ptr %0, i64 8
  %21 = load i16, ptr %20, align 8, !tbaa !17
  %22 = and i16 %21, 1
  %.not13 = icmp eq i16 %22, 0
  br i1 %.not13, label %24, label %23

23:                                               ; preds = %10
  store i32 7, ptr %5, align 4, !tbaa !13
  br label %24

24:                                               ; preds = %9, %10, %6, %23
  %.0 = phi i32 [ 0, %23 ], [ 0, %6 ], [ %4, %10 ], [ %4, %9 ]
  ret i32 %.0
}